target datalayout = "e-m:e-p270:32:32-p271:32:32-p272:64:64-i64:64-i128:128-f80:128-n8:16:32:64-S128"
target triple = "x86_64-pc-linux-gnu"

%"struct.vcpkg::Version" = type <{ %"class.std::__cxx11::basic_string", i32, [4 x i8] }>
%"class.std::__cxx11::basic_string" = type { %"struct.std::__cxx11::basic_string<char>::_Alloc_hider", i64, %union.anon }
%"struct.std::__cxx11::basic_string<char>::_Alloc_hider" = type { ptr }
%union.anon = type { i64, [8 x i8] }
%"class.fmt::v10::basic_string_view" = type { ptr, i64 }
%"class.fmt::v10::basic_format_args" = type { i64, %union.anon.30 }
%union.anon.30 = type { ptr }
%"class.fmt::v10::detail::value" = type { %union.anon.31 }
%union.anon.31 = type { i128 }
%"struct.vcpkg::VersionDiff" = type { %"struct.vcpkg::Version", %"struct.vcpkg::Version" }
%"class.fmt::v10::basic_format_string.4" = type { %"class.fmt::v10::basic_string_view" }
%"class.fmt::v10::format_arg_store.32" = type { %"struct.fmt::v10::detail::arg_data.33" }
%"struct.fmt::v10::detail::arg_data.33" = type { [2 x %"class.fmt::v10::detail::value"] }
%"struct.fmt::v10::detail::arg_mapper" = type { i8 }
%"struct.fmt::v10::detail::custom_value" = type { ptr, ptr }

@.str.1 = private unnamed_addr constant [9 x i8] c"{} -> {}\00", align 1

; Function Attrs: mustprogress uwtable
define linkonce_odr dso_local void @_ZN3fmt3v1016make_format_argsINS0_20basic_format_contextINS0_8appenderEcEEJKN5vcpkg7VersionES7_EEENS0_16format_arg_storeIT_JDpNSt9remove_cvINSt16remove_referenceIT0_E4typeEE4typeEEEEDpRSC_(ptr dead_on_unwind noalias writable sret(%"class.fmt::v10::format_arg_store.32") align 16 %0, ptr noundef nonnull align 8 dereferenceable(36) %1, ptr noundef nonnull align 8 dereferenceable(36) %2) #2 comdat {
  %4 = alloca ptr, align 8
  %5 = alloca ptr, align 8
  %6 = alloca ptr, align 8
  %7 = alloca ptr, align 8
  %8 = alloca ptr, align 8
  %9 = alloca ptr, align 8
  %10 = alloca ptr, align 8
  %11 = alloca ptr, align 8
  %12 = alloca ptr, align 8
  %13 = alloca ptr, align 8
  %14 = alloca ptr, align 8
  %15 = alloca ptr, align 8
  %16 = alloca ptr, align 8
  %17 = alloca ptr, align 8
  %18 = alloca ptr, align 8
  %19 = alloca %"class.fmt::v10::detail::value", align 16
  %20 = alloca ptr, align 8
  %21 = alloca i8, align 1
  %22 = alloca i8, align 1
  %23 = alloca i8, align 1
  %24 = alloca %"struct.fmt::v10::detail::arg_mapper", align 1
  %25 = alloca %"class.fmt::v10::detail::value", align 16
  %26 = alloca ptr, align 8
  %27 = alloca i8, align 1
  %28 = alloca i8, align 1
  %29 = alloca i8, align 1
  %30 = alloca %"struct.fmt::v10::detail::arg_mapper", align 1
  %31 = alloca ptr, align 8
  %32 = alloca ptr, align 8
  %33 = alloca ptr, align 8
  %34 = alloca %"class.fmt::v10::detail::value", align 16
  %35 = alloca %"class.fmt::v10::detail::value", align 16
  %36 = alloca ptr, align 8
  %37 = alloca ptr, align 8
  store ptr %1, ptr %36, align 8
  store ptr %2, ptr %37, align 8
  %38 = load ptr, ptr %36, align 8
  %39 = load ptr, ptr %37, align 8
  store ptr %0, ptr %31, align 8
  store ptr %38, ptr %32, align 8
  store ptr %39, ptr %33, align 8
  %40 = load ptr, ptr %31, align 8
  %41 = load ptr, ptr %32, align 8
  store ptr %41, ptr %20, align 8
  store i8 1, ptr %21, align 1
  store i8 1, ptr %22, align 1
  store i8 1, ptr %23, align 1
  %42 = load ptr, ptr %20, align 8
  store ptr %24, ptr %14, align 8
  store ptr %42, ptr %15, align 8
  %43 = load ptr, ptr %14, align 8
  %44 = load ptr, ptr %15, align 8
  store ptr %43, ptr %4, align 8
  store ptr %44, ptr %5, align 8
  %45 = load ptr, ptr %5, align 8
  store ptr %19, ptr %10, align 8
  store ptr %45, ptr %11, align 8
  %46 = load ptr, ptr %10, align 8
  %47 = load ptr, ptr %11, align 8
  store ptr %47, ptr %46, align 16
  %48 = getelementptr inbounds %"struct.fmt::v10::detail::custom_value", ptr %46, i32 0, i32 1
  store ptr @_ZN3fmt3v106detail5valueINS0_20basic_format_contextINS0_8appenderEcEEE17format_custom_argIN5vcpkg7VersionENS0_9formatterIS9_cvEEEEvPvRNS0_26basic_format_parse_contextIcEERS5_, ptr %48, align 8
  %49 = load { i64, i64 }, ptr %19, align 16
  %50 = extractvalue { i64, i64 } %49, 0
  store i64 %50, ptr %34, align 16
  %51 = getelementptr inbounds { i64, i64 }, ptr %34, i32 0, i32 1
  %52 = extractvalue { i64, i64 } %49, 1
  store i64 %52, ptr %51, align 8
  %53 = load ptr, ptr %33, align 8
  store ptr %53, ptr %26, align 8
  store i8 1, ptr %27, align 1
  store i8 1, ptr %28, align 1
  store i8 1, ptr %29, align 1
  %54 = load ptr, ptr %26, align 8
  store ptr %30, ptr %12, align 8
  store ptr %54, ptr %13, align 8
  %55 = load ptr, ptr %12, align 8
  %56 = load ptr, ptr %13, align 8
  store ptr %55, ptr %6, align 8
  store ptr %56, ptr %7, align 8
  %57 = load ptr, ptr %7, align 8
  store ptr %25, ptr %8, align 8
  store ptr %57, ptr %9, align 8
  %58 = load ptr, ptr %8, align 8
  %59 = load ptr, ptr %9, align 8
  store ptr %59, ptr %58, align 16
  %60 = getelementptr inbounds %"struct.fmt::v10::detail::custom_value", ptr %58, i32 0, i32 1
  store ptr @_ZN3fmt3v106detail5valueINS0_20basic_format_contextINS0_8appenderEcEEE17format_custom_argIN5vcpkg7VersionENS0_9formatterIS9_cvEEEEvPvRNS0_26basic_format_parse_contextIcEERS5_, ptr %60, align 8
  %61 = load { i64, i64 }, ptr %25, align 16
  %62 = extractvalue { i64, i64 } %61, 0
  store i64 %62, ptr %35, align 16
  %63 = getelementptr inbounds { i64, i64 }, ptr %35, i32 0, i32 1
  %64 = extractvalue { i64, i64 } %61, 1
  store i64 %64, ptr %63, align 8
  store ptr %40, ptr %16, align 8
  store ptr %34, ptr %17, align 8
  store ptr %35, ptr %18, align 8
  %65 = load ptr, ptr %16, align 8
  %66 = load ptr, ptr %17, align 8
  call void @llvm.memcpy.p0.p0.i64(ptr align 16 %65, ptr align 16 %66, i64 16, i1 false)
  %67 = getelementptr inbounds %"class.fmt::v10::detail::value", ptr %65, i64 1
  %68 = load ptr, ptr %18, align 8
  call void @llvm.memcpy.p0.p0.i64(ptr align 16 %67, ptr align 16 %68, i64 16, i1 false)
  ret void
}

; Function Attrs: mustprogress nounwind uwtable
define linkonce_odr dso_local noundef i64 @_ZNSt11char_traitsIcE6lengthEPKc(ptr noundef %0) #0 comdat align 2 {
  %2 = alloca ptr, align 8
  store ptr %0, ptr %2, align 8
  %3 = load ptr, ptr %2, align 8
  %4 = call i64 @strlen(ptr noundef %3) #13
  ret i64 %4
}

; Function Attrs: mustprogress uwtable
define dso_local void @_ZNK5vcpkg11VersionDiff9to_stringB5cxx11Ev(ptr dead_on_unwind noalias writable sret(%"class.std::__cxx11::basic_string") align 8 %0, ptr noundef nonnull align 8 dereferenceable(80) %1) #2 align 2 {
  %3 = alloca ptr, align 8
  %4 = alloca ptr, align 8
  %5 = alloca ptr, align 8
  %6 = alloca i64, align 8
  %7 = alloca ptr, align 8
  %8 = alloca ptr, align 8
  %9 = alloca ptr, align 8
  %10 = alloca %"class.fmt::v10::basic_string_view", align 8
  %11 = alloca ptr, align 8
  %12 = alloca ptr, align 8
  %13 = alloca ptr, align 8
  %14 = alloca ptr, align 8
  %15 = alloca ptr, align 8
  %16 = alloca ptr, align 8
  %17 = alloca %"class.fmt::v10::basic_format_string.4", align 8
  %18 = alloca ptr, align 8
  %19 = alloca ptr, align 8
  %20 = alloca %"class.fmt::v10::basic_string_view", align 8
  %21 = alloca %"class.fmt::v10::basic_format_args", align 8
  %22 = alloca %"class.fmt::v10::format_arg_store.32", align 16
  %23 = alloca ptr, align 8
  %24 = alloca ptr, align 8
  %25 = alloca %"class.fmt::v10::basic_format_string.4", align 8
  store ptr %0, ptr %23, align 8
  store ptr %1, ptr %24, align 8
  %26 = load ptr, ptr %24, align 8
  store ptr %25, ptr %14, align 8
  store ptr @.str.1, ptr %15, align 8
  %27 = load ptr, ptr %14, align 8
  %28 = load ptr, ptr %15, align 8
  store ptr %27, ptr %12, align 8
  store ptr %28, ptr %13, align 8
  %29 = load ptr, ptr %12, align 8
  %30 = load ptr, ptr %13, align 8
  store ptr %30, ptr %29, align 8
  %31 = getelementptr inbounds %"class.fmt::v10::basic_string_view", ptr %29, i32 0, i32 1
  %32 = load ptr, ptr %13, align 8
  %33 = call noundef i64 @_ZNSt11char_traitsIcE6lengthEPKc(ptr noundef %32)
  store i64 %33, ptr %31, align 8
  %34 = load ptr, ptr %15, align 8
  store ptr %34, ptr %3, align 8
  %35 = getelementptr inbounds %"struct.vcpkg::VersionDiff", ptr %26, i32 0, i32 0
  %36 = getelementptr inbounds %"struct.vcpkg::VersionDiff", ptr %26, i32 0, i32 1
  %37 = getelementptr inbounds { ptr, i64 }, ptr %25, i32 0, i32 0
  %38 = load ptr, ptr %37, align 8
  %39 = getelementptr inbounds { ptr, i64 }, ptr %25, i32 0, i32 1
  %40 = load i64, ptr %39, align 8
  call void @llvm.experimental.noalias.scope.decl(metadata !5)
  store ptr %0, ptr %16, align 8, !noalias !5
  store ptr %38, ptr %17, align 8, !noalias !5
  %41 = getelementptr inbounds { ptr, i64 }, ptr %17, i32 0, i32 1
  store i64 %40, ptr %41, align 8, !noalias !5
  store ptr %35, ptr %18, align 8, !noalias !5
  store ptr %36, ptr %19, align 8, !noalias !5
  store ptr %17, ptr %11, align 8
  %42 = load ptr, ptr %11, align 8
  call void @llvm.memcpy.p0.p0.i64(ptr align 8 %10, ptr align 8 %42, i64 16, i1 false)
  %43 = load { ptr, i64 }, ptr %10, align 8
  %44 = extractvalue { ptr, i64 } %43, 0
  store ptr %44, ptr %20, align 8, !noalias !5
  %45 = getelementptr inbounds { ptr, i64 }, ptr %20, i32 0, i32 1
  %46 = extractvalue { ptr, i64 } %43, 1
  store i64 %46, ptr %45, align 8, !noalias !5
  %47 = load ptr, ptr %18, align 8, !noalias !5
  %48 = load ptr, ptr %19, align 8, !noalias !5
  call void @_ZN3fmt3v1016make_format_argsINS0_20basic_format_contextINS0_8appenderEcEEJKN5vcpkg7VersionES7_EEENS0_16format_arg_storeIT_JDpNSt9remove_cvINSt16remove_referenceIT0_E4typeEE4typeEEEEDpRSC_(ptr dead_on_unwind writable sret(%"class.fmt::v10::format_arg_store.32") align 16 %22, ptr noundef nonnull align 8 dereferenceable(36) %47, ptr noundef nonnull align 8 dereferenceable(36) %48)
  store ptr %21, ptr %8, align 8
  store ptr %22, ptr %9, align 8
  %49 = load ptr, ptr %8, align 8
  %50 = load ptr, ptr %9, align 8
  store ptr %50, ptr %4, align 8
  %51 = load ptr, ptr %4, align 8
  store ptr %49, ptr %5, align 8
  store i64 255, ptr %6, align 8
  store ptr %51, ptr %7, align 8
  %52 = load ptr, ptr %5, align 8
  %53 = load i64, ptr %6, align 8
  store i64 %53, ptr %52, align 8
  %54 = getelementptr inbounds %"class.fmt::v10::basic_format_args", ptr %52, i32 0, i32 1
  %55 = load ptr, ptr %7, align 8
  store ptr %55, ptr %54, align 8
  %56 = load ptr, ptr %20, align 8, !noalias !5
  %57 = getelementptr inbounds { ptr, i64 }, ptr %20, i32 0, i32 1
  %58 = load i64, ptr %57, align 8, !noalias !5
  %59 = load i64, ptr %21, align 8, !noalias !5
  %60 = getelementptr inbounds { i64, ptr }, ptr %21, i32 0, i32 1
  %61 = load ptr, ptr %60, align 8, !noalias !5
  call void @_ZN3fmt3v107vformatB5cxx11ENS0_17basic_string_viewIcEENS0_17basic_format_argsINS0_20basic_format_contextINS0_8appenderEcEEEE(ptr dead_on_unwind writable sret(%"class.std::__cxx11::basic_string") align 8 %0, ptr %56, i64 %58, i64 %59, ptr %61)
  ret void
}