; Function Attrs: mustprogress uwtable
define dso_local void @_ZNK5vcpkg11VersionDiff9to_stringB5cxx11Ev(ptr dead_on_unwind noalias writable sret(%"class.std::__cxx11::basic_string") align 8 %0, ptr noundef nonnull align 8 dereferenceable(80) %1) local_unnamed_addr #2 align 2 {
  %3 = alloca %"class.fmt::v10::format_arg_store.32", align 16
  %4 = getelementptr inbounds i8, ptr %1, i64 40
  %5 = ptrtoint ptr %1 to i64
  %6 = ptrtoint ptr %4 to i64
  store i64 %5, ptr %3, align 16, !alias.scope !13
  %.sroa.229.0..sroa_idx.i = getelementptr inbounds i8, ptr %3, i64 8
  store i64 ptrtoint (ptr @_ZN3fmt3v106detail5valueINS0_20basic_format_contextINS0_8appenderEcEEE17format_custom_argIN5vcpkg7VersionENS0_9formatterIS9_cvEEEEvPvRNS0_26basic_format_parse_contextIcEERS5_ to i64), ptr %.sroa.229.0..sroa_idx.i, align 8, !alias.scope !13
  %7 = getelementptr inbounds i8, ptr %3, i64 16
  store i64 %6, ptr %7, align 16, !alias.scope !13
  %.sroa.231.0..sroa_idx.i = getelementptr inbounds i8, ptr %3, i64 24
  store i64 ptrtoint (ptr @_ZN3fmt3v106detail5valueINS0_20basic_format_contextINS0_8appenderEcEEE17format_custom_argIN5vcpkg7VersionENS0_9formatterIS9_cvEEEEvPvRNS0_26basic_format_parse_contextIcEERS5_ to i64), ptr %.sroa.231.0..sroa_idx.i, align 8, !alias.scope !13
  call void @_ZN3fmt3v107vformatB5cxx11ENS0_17basic_string_viewIcEENS0_17basic_format_argsINS0_20basic_format_contextINS0_8appenderEcEEEE(ptr dead_on_unwind writable sret(%"class.std::__cxx11::basic_string") align 8 %0, ptr nonnull @.str.1, i64 8, i64 255, ptr nonnull %3)
  ret void
}